target datalayout = "e-m:e-p270:32:32-p271:32:32-p272:64:64-i64:64-i128:128-f80:128-n8:16:32:64-S128"
target triple = "x86_64-pc-linux-gnu"

%struct.Scheduler = type { ptr, ptr, i32, ptr, i32, i32, %union.pthread_mutex_t, i32, i32, %union.pthread_mutex_t, %union.pthread_cond_t, ptr, i32, ptr, i32, ptr, i32, ptr, i32, ptr, i32, i32, i32, %union.pthread_mutex_t, i64 }
%union.pthread_cond_t = type { %struct.__pthread_cond_s }
%struct.__pthread_cond_s = type { %union.__atomic_wide_counter, %union.__atomic_wide_counter, [2 x i32], [2 x i32], i32, i32, [2 x i32] }
%union.__atomic_wide_counter = type { i64 }
%union.pthread_mutex_t = type { %struct.__pthread_mutex_s }
%struct.__pthread_mutex_s = type { i32, i32, i32, i32, i32, i16, i16, %struct.__pthread_internal_list }
%struct.__pthread_internal_list = type { ptr, ptr }
%struct.SchTask = type { ptr, %struct.SchedulerNode, ptr, ptr, i64, i32 }
%struct.SchedulerNode = type { i32, i32, i32 }
%struct.SchWaiter = type { %union.pthread_mutex_t, %union.pthread_cond_t, i32, i32, i32 }
%struct.SchEnc = type { ptr, %struct.SchedulerNode, ptr, ptr, i32, [2 x i32], ptr, i32, %struct.SchTask, ptr, i32, ptr }
%struct.SchFilterGraph = type { ptr, ptr, i32, i32, i32, ptr, i32, %struct.SchTask, ptr, %struct.SchWaiter, i32, i32 }
%struct.SchFilterIn = type { %struct.SchedulerNode, %struct.SchedulerNode, i32, i32 }
%struct.SchFilterOut = type { %struct.SchedulerNode }

@.str = private unnamed_addr constant [30 x i8] c"Assertion %s failed at %s:%d\0A\00", align 1
@.str.2 = private unnamed_addr constant [23 x i8] c"fftools/ffmpeg_sched.c\00", align 1
@.str.28 = private unnamed_addr constant [25 x i8] c"fg_idx < sch->nb_filters\00", align 1
@.str.31 = private unnamed_addr constant [25 x i8] c"out_idx < fg->nb_outputs\00", align 1

; Function Attrs: nounwind uwtable
define internal i32 @send_to_filter(ptr noundef %0, ptr noundef %1, i32 noundef %2, ptr noundef %3) #0 {
  %5 = alloca i32, align 4
  %6 = alloca ptr, align 8
  %7 = alloca ptr, align 8
  %8 = alloca i32, align 4
  %9 = alloca ptr, align 8
  %10 = alloca i32, align 4
  %11 = alloca i32, align 4
  store ptr %0, ptr %6, align 8, !tbaa !10
  store ptr %1, ptr %7, align 8, !tbaa !78
  store i32 %2, ptr %8, align 4, !tbaa !12
  store ptr %3, ptr %9, align 8, !tbaa !232
  %12 = load ptr, ptr %9, align 8, !tbaa !232
  %13 = icmp ne ptr %12, null
  br i1 %13, label %14, label %21

14:                                               ; preds = %4
  %15 = load ptr, ptr %7, align 8, !tbaa !78
  %16 = getelementptr inbounds nuw %struct.SchFilterGraph, ptr %15, i32 0, i32 8
  %17 = load ptr, ptr %16, align 8, !tbaa !239
  %18 = load i32, ptr %8, align 4, !tbaa !12
  %19 = load ptr, ptr %9, align 8, !tbaa !232
  %20 = call i32 @tq_send(ptr noundef %17, i32 noundef %18, ptr noundef %19)
  store i32 %20, ptr %5, align 4
  br label %62

21:                                               ; preds = %4
  %22 = load ptr, ptr %7, align 8, !tbaa !78
  %23 = getelementptr inbounds nuw %struct.SchFilterGraph, ptr %22, i32 0, i32 1
  %24 = load ptr, ptr %23, align 8, !tbaa !126
  %25 = load i32, ptr %8, align 4, !tbaa !12
  %26 = zext i32 %25 to i64
  %27 = getelementptr inbounds nuw %struct.SchFilterIn, ptr %24, i64 %26
  %28 = getelementptr inbounds nuw %struct.SchFilterIn, ptr %27, i32 0, i32 2
  %29 = load i32, ptr %28, align 4, !tbaa !243
  %30 = icmp ne i32 %29, 0
  br i1 %30, label %61, label %31

31:                                               ; preds = %21
  %32 = load ptr, ptr %7, align 8, !tbaa !78
  %33 = getelementptr inbounds nuw %struct.SchFilterGraph, ptr %32, i32 0, i32 1
  %34 = load ptr, ptr %33, align 8, !tbaa !126
  %35 = load i32, ptr %8, align 4, !tbaa !12
  %36 = zext i32 %35 to i64
  %37 = getelementptr inbounds nuw %struct.SchFilterIn, ptr %34, i64 %36
  %38 = getelementptr inbounds nuw %struct.SchFilterIn, ptr %37, i32 0, i32 2
  store i32 1, ptr %38, align 4, !tbaa !243
  %39 = load ptr, ptr %7, align 8, !tbaa !78
  %40 = getelementptr inbounds nuw %struct.SchFilterGraph, ptr %39, i32 0, i32 8
  %41 = load ptr, ptr %40, align 8, !tbaa !239
  %42 = load i32, ptr %8, align 4, !tbaa !12
  call void @tq_send_finish(ptr noundef %41, i32 noundef %42)
  %43 = load ptr, ptr %7, align 8, !tbaa !78
  %44 = getelementptr inbounds nuw %struct.SchFilterGraph, ptr %43, i32 0, i32 3
  store i32 1, ptr %10, align 4, !tbaa !12
  %45 = load i32, ptr %10, align 4
  %46 = atomicrmw add ptr %44, i32 %45 seq_cst, align 4
  store i32 %46, ptr %11, align 4
  %47 = load i32, ptr %11, align 4, !tbaa !12
  %48 = load ptr, ptr %7, align 8, !tbaa !78
  %49 = getelementptr inbounds nuw %struct.SchFilterGraph, ptr %48, i32 0, i32 2
  %50 = load i32, ptr %49, align 8, !tbaa !127
  %51 = sub i32 %50, 1
  %52 = icmp eq i32 %47, %51
  br i1 %52, label %53, label %60

53:                                               ; preds = %31
  %54 = load ptr, ptr %7, align 8, !tbaa !78
  %55 = getelementptr inbounds nuw %struct.SchFilterGraph, ptr %54, i32 0, i32 8
  %56 = load ptr, ptr %55, align 8, !tbaa !239
  %57 = load ptr, ptr %7, align 8, !tbaa !78
  %58 = getelementptr inbounds nuw %struct.SchFilterGraph, ptr %57, i32 0, i32 2
  %59 = load i32, ptr %58, align 8, !tbaa !127
  call void @tq_send_finish(ptr noundef %56, i32 noundef %59)
  br label %60

60:                                               ; preds = %53, %31
  br label %61

61:                                               ; preds = %60, %21
  store i32 0, ptr %5, align 4
  br label %62

62:                                               ; preds = %61, %14
  %63 = load i32, ptr %5, align 4
  ret i32 %63
}

; Function Attrs: nounwind uwtable
define i32 @sch_filter_send(ptr noundef %0, i32 noundef %1, i32 noundef %2, ptr noundef %3) #0 {
  %5 = alloca ptr, align 8
  %6 = alloca i32, align 4
  %7 = alloca i32, align 4
  %8 = alloca ptr, align 8
  %9 = alloca ptr, align 8
  %10 = alloca %struct.SchedulerNode, align 4
  store ptr %0, ptr %5, align 8, !tbaa !10
  store i32 %1, ptr %6, align 4, !tbaa !12
  store i32 %2, ptr %7, align 4, !tbaa !12
  store ptr %3, ptr %8, align 8, !tbaa !232
  call void @llvm.lifetime.start.p0(i64 8, ptr %9) #9
  call void @llvm.lifetime.start.p0(i64 12, ptr %10) #9
  br label %11

11:                                               ; preds = %4
  %12 = load i32, ptr %6, align 4, !tbaa !12
  %13 = load ptr, ptr %5, align 8, !tbaa !10
  %14 = getelementptr inbounds nuw %struct.Scheduler, ptr %13, i32 0, i32 18
  %15 = load i32, ptr %14, align 8, !tbaa !76
  %16 = icmp ult i32 %12, %15
  br i1 %16, label %18, label %17

17:                                               ; preds = %11
  call void (ptr, i32, ptr, ...) @av_log(ptr noundef null, i32 noundef 0, ptr noundef @.str, ptr noundef @.str.28, ptr noundef @.str.2, i32 noundef 2465)
  call void @abort() #10
  unreachable

18:                                               ; preds = %11
  br label %19

19:                                               ; preds = %18
  br label %20

20:                                               ; preds = %19
  %21 = load ptr, ptr %5, align 8, !tbaa !10
  %22 = getelementptr inbounds nuw %struct.Scheduler, ptr %21, i32 0, i32 17
  %23 = load ptr, ptr %22, align 8, !tbaa !77
  %24 = load i32, ptr %6, align 4, !tbaa !12
  %25 = zext i32 %24 to i64
  %26 = getelementptr inbounds nuw %struct.SchFilterGraph, ptr %23, i64 %25
  store ptr %26, ptr %9, align 8, !tbaa !78
  br label %27

27:                                               ; preds = %20
  %28 = load i32, ptr %7, align 4, !tbaa !12
  %29 = load ptr, ptr %9, align 8, !tbaa !78
  %30 = getelementptr inbounds nuw %struct.SchFilterGraph, ptr %29, i32 0, i32 6
  %31 = load i32, ptr %30, align 8, !tbaa !129
  %32 = icmp ult i32 %28, %31
  br i1 %32, label %34, label %33

33:                                               ; preds = %27
  call void (ptr, i32, ptr, ...) @av_log(ptr noundef null, i32 noundef 0, ptr noundef @.str, ptr noundef @.str.31, ptr noundef @.str.2, i32 noundef 2468)
  call void @abort() #10
  unreachable

34:                                               ; preds = %27
  br label %35

35:                                               ; preds = %34
  br label %36

36:                                               ; preds = %35
  %37 = load ptr, ptr %9, align 8, !tbaa !78
  %38 = getelementptr inbounds nuw %struct.SchFilterGraph, ptr %37, i32 0, i32 5
  %39 = load ptr, ptr %38, align 8, !tbaa !128
  %40 = load i32, ptr %7, align 4, !tbaa !12
  %41 = zext i32 %40 to i64
  %42 = getelementptr inbounds nuw %struct.SchFilterOut, ptr %39, i64 %41
  %43 = getelementptr inbounds nuw %struct.SchFilterOut, ptr %42, i32 0, i32 0
  call void @llvm.memcpy.p0.p0.i64(ptr align 4 %10, ptr align 4 %43, i64 12, i1 false), !tbaa.struct !142
  %44 = getelementptr inbounds nuw %struct.SchedulerNode, ptr %10, i32 0, i32 0
  %45 = load i32, ptr %44, align 4, !tbaa !136
  %46 = icmp eq i32 %45, 4
  br i1 %46, label %47, label %58

47:                                               ; preds = %36
  %48 = load ptr, ptr %5, align 8, !tbaa !10
  %49 = load ptr, ptr %5, align 8, !tbaa !10
  %50 = getelementptr inbounds nuw %struct.Scheduler, ptr %49, i32 0, i32 13
  %51 = load ptr, ptr %50, align 8, !tbaa !69
  %52 = getelementptr inbounds nuw %struct.SchedulerNode, ptr %10, i32 0, i32 1
  %53 = load i32, ptr %52, align 4, !tbaa !137
  %54 = zext i32 %53 to i64
  %55 = getelementptr inbounds nuw %struct.SchEnc, ptr %51, i64 %54
  %56 = load ptr, ptr %8, align 8, !tbaa !232
  %57 = call i32 @send_to_enc(ptr noundef %48, ptr noundef %55, ptr noundef %56)
  br label %71

58:                                               ; preds = %36
  %59 = load ptr, ptr %5, align 8, !tbaa !10
  %60 = load ptr, ptr %5, align 8, !tbaa !10
  %61 = getelementptr inbounds nuw %struct.Scheduler, ptr %60, i32 0, i32 17
  %62 = load ptr, ptr %61, align 8, !tbaa !77
  %63 = getelementptr inbounds nuw %struct.SchedulerNode, ptr %10, i32 0, i32 1
  %64 = load i32, ptr %63, align 4, !tbaa !137
  %65 = zext i32 %64 to i64
  %66 = getelementptr inbounds nuw %struct.SchFilterGraph, ptr %62, i64 %65
  %67 = getelementptr inbounds nuw %struct.SchedulerNode, ptr %10, i32 0, i32 2
  %68 = load i32, ptr %67, align 4, !tbaa !138
  %69 = load ptr, ptr %8, align 8, !tbaa !232
  %70 = call i32 @send_to_filter(ptr noundef %59, ptr noundef %66, i32 noundef %68, ptr noundef %69)
  br label %71

71:                                               ; preds = %58, %47
  %72 = phi i32 [ %57, %47 ], [ %70, %58 ]
  call void @llvm.lifetime.end.p0(i64 12, ptr %10) #9
  call void @llvm.lifetime.end.p0(i64 8, ptr %9) #9
  ret i32 %72
}