; Function Attrs: nounwind uwtable
define i32 @sch_filter_send(ptr noundef %0, i32 noundef %1, i32 noundef %2, ptr noundef %3) local_unnamed_addr #0 {
  %5 = getelementptr inbounds nuw i8, ptr %0, i64 232
  %6 = load i32, ptr %5, align 8, !tbaa !62
  %7 = icmp ult i32 %1, %6
  br i1 %7, label %9, label %8

8:                                                ; preds = %4
  tail call void (ptr, i32, ptr, ...) @av_log(ptr noundef null, i32 noundef 0, ptr noundef nonnull @.str, ptr noundef nonnull @.str.28, ptr noundef nonnull @.str.2, i32 noundef 2465) #9
  tail call void @abort() #10
  unreachable

9:                                                ; preds = %4
  %10 = getelementptr inbounds nuw i8, ptr %0, i64 224
  %11 = load ptr, ptr %10, align 8, !tbaa !65
  %12 = zext i32 %1 to i64
  %13 = getelementptr inbounds nuw %struct.SchFilterGraph, ptr %11, i64 %12
  %14 = getelementptr inbounds nuw i8, ptr %13, i64 40
  %15 = load i32, ptr %14, align 8, !tbaa !112
  %16 = icmp ult i32 %2, %15
  br i1 %16, label %18, label %17

17:                                               ; preds = %9
  tail call void (ptr, i32, ptr, ...) @av_log(ptr noundef null, i32 noundef 0, ptr noundef nonnull @.str, ptr noundef nonnull @.str.31, ptr noundef nonnull @.str.2, i32 noundef 2468) #9
  tail call void @abort() #10
  unreachable

18:                                               ; preds = %9
  %19 = getelementptr inbounds nuw i8, ptr %13, i64 32
  %20 = load ptr, ptr %19, align 8, !tbaa !111
  %21 = zext i32 %2 to i64
  %22 = getelementptr inbounds nuw %struct.SchFilterOut, ptr %20, i64 %21
  %.sroa.0.0.copyload = load i32, ptr %22, align 4, !tbaa !68
  %.sroa.4.0..sroa_idx = getelementptr inbounds nuw i8, ptr %22, i64 4
  %.sroa.4.0.copyload = load i32, ptr %.sroa.4.0..sroa_idx, align 4, !tbaa !68
  %23 = icmp eq i32 %.sroa.0.0.copyload, 4
  %24 = zext i32 %.sroa.4.0.copyload to i64
  br i1 %23, label %25, label %30

25:                                               ; preds = %18
  %26 = getelementptr inbounds nuw i8, ptr %0, i64 192
  %27 = load ptr, ptr %26, align 8, !tbaa !60
  %28 = getelementptr inbounds nuw %struct.SchEnc, ptr %27, i64 %24
  %29 = tail call fastcc i32 @send_to_enc(ptr noundef nonnull %0, ptr noundef %28, ptr noundef %3)
  br label %send_to_filter.exit

30:                                               ; preds = %18
  %.sroa.6.0..sroa_idx = getelementptr inbounds nuw i8, ptr %22, i64 8
  %.sroa.6.0.copyload = load i32, ptr %.sroa.6.0..sroa_idx, align 4, !tbaa !68
  %31 = getelementptr inbounds nuw %struct.SchFilterGraph, ptr %11, i64 %24
  %.not.i = icmp eq ptr %3, null
  br i1 %.not.i, label %36, label %32

32:                                               ; preds = %30
  %33 = getelementptr inbounds nuw i8, ptr %31, i64 104
  %34 = load ptr, ptr %33, align 8, !tbaa !214
  %35 = tail call i32 @tq_send(ptr noundef %34, i32 noundef %.sroa.6.0.copyload, ptr noundef nonnull %3) #9
  br label %send_to_filter.exit

36:                                               ; preds = %30
  %37 = getelementptr inbounds nuw i8, ptr %31, i64 8
  %38 = load ptr, ptr %37, align 8, !tbaa !109
  %39 = zext i32 %.sroa.6.0.copyload to i64
  %40 = getelementptr inbounds nuw %struct.SchFilterIn, ptr %38, i64 %39, i32 2
  %41 = load i32, ptr %40, align 4, !tbaa !215
  %.not17.i = icmp eq i32 %41, 0
  br i1 %.not17.i, label %42, label %send_to_filter.exit

42:                                               ; preds = %36
  store i32 1, ptr %40, align 4, !tbaa !215
  %43 = getelementptr inbounds nuw i8, ptr %31, i64 104
  %44 = load ptr, ptr %43, align 8, !tbaa !214
  tail call void @tq_send_finish(ptr noundef %44, i32 noundef %.sroa.6.0.copyload) #9
  %45 = getelementptr inbounds nuw i8, ptr %31, i64 20
  %46 = atomicrmw add ptr %45, i32 1 seq_cst, align 4
  %47 = getelementptr inbounds nuw i8, ptr %31, i64 16
  %48 = load i32, ptr %47, align 8, !tbaa !110
  %49 = add i32 %48, -1
  %50 = icmp eq i32 %46, %49
  br i1 %50, label %51, label %send_to_filter.exit

51:                                               ; preds = %42
  %52 = load ptr, ptr %43, align 8, !tbaa !214
  tail call void @tq_send_finish(ptr noundef %52, i32 noundef %48) #9
  br label %send_to_filter.exit

send_to_filter.exit:                              ; preds = %51, %42, %36, %32, %25
  %53 = phi i32 [ %29, %25 ], [ %35, %32 ], [ 0, %42 ], [ 0, %51 ], [ 0, %36 ]
  ret i32 %53
}